target datalayout = "e-m:e-p270:32:32-p271:32:32-p272:64:64-i64:64-i128:128-f80:128-n8:16:32:64-S128"
target triple = "x86_64-pc-linux-gnu"

%struct.t_dihatms = type { i32, i32, i32, i32, i32, i32, i32, [9 x i32] }
%"class.std::filesystem::__cxx11::path" = type { %"class.std::__cxx11::basic_string", %"struct.std::filesystem::__cxx11::path::_List" }
%"class.std::__cxx11::basic_string" = type { %"struct.std::__cxx11::basic_string<char>::_Alloc_hider", i64, %union.anon }
%"struct.std::__cxx11::basic_string<char>::_Alloc_hider" = type { ptr }
%union.anon = type { i64, [8 x i8] }
%"struct.std::filesystem::__cxx11::path::_List" = type { %"class.std::unique_ptr" }
%"class.std::unique_ptr" = type { %"struct.std::__uniq_ptr_data" }
%"struct.std::__uniq_ptr_data" = type { %"class.std::__uniq_ptr_impl" }
%"class.std::__uniq_ptr_impl" = type { %"class.std::tuple" }
%"class.std::tuple" = type { %"struct.std::_Tuple_impl" }
%"struct.std::_Tuple_impl" = type { %"struct.std::_Head_base.4" }
%"struct.std::_Head_base.4" = type { ptr }
%struct.t_dlist = type { [12 x i8], i32, %"class.std::__cxx11::basic_string", [9 x i32], %struct.t_dihatms, [9 x i32], [9 x i32], [9 x float], [9 x [4 x float]] }
%"class.gmx::ArrayRef" = type { %"struct.gmx::ArrayRefIter", %"struct.gmx::ArrayRefIter" }
%"struct.gmx::ArrayRefIter" = type { ptr }

@.str = private unnamed_addr constant [122 x i8] c"generated/home/dtcxzyw/WorkSpace/Projects/compilers/llvm-opt-benchmark/bench/gromacs/gromacs/src/gromacs/gmxana/dlist.cpp\00", align 1
@stdout = external global ptr, align 8
@.str.55 = private unnamed_addr constant [45 x i8] c"Non existent dihedral %d in file %s, line %d\00", align 1

; Function Attrs: mustprogress nounwind uwtable
define linkonce_odr void @_ZN3gmx12ArrayRefIterIK7t_dlistEC2EPS2_(ptr noundef nonnull align 8 dereferenceable(8) %0, ptr noundef %1) unnamed_addr #2 comdat align 2 {
  %3 = alloca ptr, align 8
  %4 = alloca ptr, align 8
  store ptr %0, ptr %3, align 8, !tbaa !147
  store ptr %1, ptr %4, align 8, !tbaa !92
  %5 = load ptr, ptr %3, align 8
  %6 = getelementptr inbounds nuw %"struct.gmx::ArrayRefIter", ptr %5, i32 0, i32 0
  %7 = load ptr, ptr %4, align 8, !tbaa !92
  store ptr %7, ptr %6, align 8, !tbaa !149
  ret void
}

; Function Attrs: mustprogress nounwind uwtable
define linkonce_odr void @_ZN3gmx8ArrayRefIK7t_dlistEC2Ev(ptr noundef nonnull align 8 dereferenceable(16) %0) unnamed_addr #2 comdat align 2 {
  %2 = alloca ptr, align 8
  store ptr %0, ptr %2, align 8, !tbaa !144
  %3 = load ptr, ptr %2, align 8
  %4 = getelementptr inbounds nuw %"class.gmx::ArrayRef", ptr %3, i32 0, i32 0
  call void @_ZN3gmx12ArrayRefIterIK7t_dlistEC2EPS2_(ptr noundef nonnull align 8 dereferenceable(8) %4, ptr noundef null) #16
  %5 = getelementptr inbounds nuw %"class.gmx::ArrayRef", ptr %3, i32 0, i32 1
  call void @_ZN3gmx12ArrayRefIterIK7t_dlistEC2EPS2_(ptr noundef nonnull align 8 dereferenceable(8) %5, ptr noundef null) #16
  ret void
}

; Function Attrs: mustprogress nounwind uwtable
define linkonce_odr void @_ZN3gmx8ArrayRefIK7t_dlistEC2EPS2_S4_(ptr noundef nonnull align 8 dereferenceable(16) %0, ptr noundef %1, ptr noundef %2) unnamed_addr #2 comdat align 2 {
  %4 = alloca ptr, align 8
  %5 = alloca ptr, align 8
  %6 = alloca ptr, align 8
  store ptr %0, ptr %4, align 8, !tbaa !144
  store ptr %1, ptr %5, align 8, !tbaa !92
  store ptr %2, ptr %6, align 8, !tbaa !92
  %7 = load ptr, ptr %4, align 8
  %8 = getelementptr inbounds nuw %"class.gmx::ArrayRef", ptr %7, i32 0, i32 0
  %9 = load ptr, ptr %5, align 8, !tbaa !92
  call void @_ZN3gmx12ArrayRefIterIK7t_dlistEC2EPS2_(ptr noundef nonnull align 8 dereferenceable(8) %8, ptr noundef %9) #16
  %10 = getelementptr inbounds nuw %"class.gmx::ArrayRef", ptr %7, i32 0, i32 1
  %11 = load ptr, ptr %6, align 8, !tbaa !92
  call void @_ZN3gmx12ArrayRefIterIK7t_dlistEC2EPS2_(ptr noundef nonnull align 8 dereferenceable(8) %10, ptr noundef %11) #16
  ret void
}

; Function Attrs: mustprogress uwtable
define linkonce_odr { ptr, ptr } @_ZN3gmx22constArrayRefFromArrayI7t_dlistEENS_8ArrayRefIKT_EEPS4_m(ptr noundef %0, i64 noundef %1) #0 comdat {
  %3 = alloca %"class.gmx::ArrayRef", align 8
  %4 = alloca ptr, align 8
  %5 = alloca i64, align 8
  store ptr %0, ptr %4, align 8, !tbaa !92
  store i64 %1, ptr %5, align 8, !tbaa !69
  %6 = load ptr, ptr %4, align 8, !tbaa !92
  %7 = icmp ne ptr %6, null
  br i1 %7, label %8, label %13

8:                                                ; preds = %2
  %9 = load ptr, ptr %4, align 8, !tbaa !92
  %10 = load ptr, ptr %4, align 8, !tbaa !92
  %11 = load i64, ptr %5, align 8, !tbaa !69
  %12 = getelementptr inbounds nuw %struct.t_dlist, ptr %10, i64 %11
  call void @_ZN3gmx8ArrayRefIK7t_dlistEC2EPS2_S4_(ptr noundef nonnull align 8 dereferenceable(16) %3, ptr noundef %9, ptr noundef %12)
  br label %14

13:                                               ; preds = %2
  call void @_ZN3gmx8ArrayRefIK7t_dlistEC2Ev(ptr noundef nonnull align 8 dereferenceable(16) %3)
  br label %14

14:                                               ; preds = %13, %8
  %15 = load { ptr, ptr }, ptr %3, align 8
  ret { ptr, ptr } %15
}

; Function Attrs: mustprogress uwtable
define noundef zeroext i1 @_Z12has_dihedraliRK7t_dlist(i32 noundef %0, ptr noundef nonnull align 8 dereferenceable(400) %1) #0 personality ptr @__gxx_personality_v0 {
  %3 = alloca i32, align 4
  %4 = alloca ptr, align 8
  %5 = alloca i8, align 1
  %6 = alloca i32, align 4
  %7 = alloca %"class.gmx::ArrayRef", align 8
  %8 = alloca %"class.std::filesystem::__cxx11::path", align 8
  %9 = alloca ptr, align 8
  %10 = alloca i32, align 4
  store i32 %0, ptr %3, align 4, !tbaa !13
  store ptr %1, ptr %4, align 8, !tbaa !92
  call void @llvm.lifetime.start.p0(i64 1, ptr %5) #16
  store i8 0, ptr %5, align 1, !tbaa !11
  call void @llvm.lifetime.start.p0(i64 4, ptr %6) #16
  %11 = load i32, ptr %3, align 4, !tbaa !13
  switch i32 %11, label %140 [
    i32 0, label %12
    i32 1, label %40
    i32 2, label %68
    i32 3, label %96
    i32 4, label %96
    i32 5, label %96
    i32 6, label %96
    i32 7, label %96
    i32 8, label %96
  ]

12:                                               ; preds = %2
  %13 = load ptr, ptr %4, align 8, !tbaa !92
  %14 = getelementptr inbounds nuw %struct.t_dlist, ptr %13, i32 0, i32 4
  %15 = getelementptr inbounds nuw %struct.t_dihatms, ptr %14, i32 0, i32 3
  %16 = load i32, ptr %15, align 4, !tbaa !137
  %17 = icmp ne i32 %16, -1
  br i1 %17, label %18, label %37

18:                                               ; preds = %12
  %19 = load ptr, ptr %4, align 8, !tbaa !92
  %20 = getelementptr inbounds nuw %struct.t_dlist, ptr %19, i32 0, i32 4
  %21 = getelementptr inbounds nuw %struct.t_dihatms, ptr %20, i32 0, i32 4
  %22 = load i32, ptr %21, align 4, !tbaa !138
  %23 = icmp ne i32 %22, -1
  br i1 %23, label %24, label %37

24:                                               ; preds = %18
  %25 = load ptr, ptr %4, align 8, !tbaa !92
  %26 = getelementptr inbounds nuw %struct.t_dlist, ptr %25, i32 0, i32 4
  %27 = getelementptr inbounds nuw %struct.t_dihatms, ptr %26, i32 0, i32 7
  %28 = getelementptr inbounds [9 x i32], ptr %27, i64 0, i64 1
  %29 = load i32, ptr %28, align 4, !tbaa !13
  %30 = icmp ne i32 %29, -1
  br i1 %30, label %31, label %37

31:                                               ; preds = %24
  %32 = load ptr, ptr %4, align 8, !tbaa !92
  %33 = getelementptr inbounds nuw %struct.t_dlist, ptr %32, i32 0, i32 4
  %34 = getelementptr inbounds nuw %struct.t_dihatms, ptr %33, i32 0, i32 5
  %35 = load i32, ptr %34, align 4, !tbaa !139
  %36 = icmp ne i32 %35, -1
  br label %37

37:                                               ; preds = %31, %24, %18, %12
  %38 = phi i1 [ false, %24 ], [ false, %18 ], [ false, %12 ], [ %36, %31 ]
  %39 = zext i1 %38 to i8
  store i8 %39, ptr %5, align 1, !tbaa !11
  br label %158

40:                                               ; preds = %2
  %41 = load ptr, ptr %4, align 8, !tbaa !92
  %42 = getelementptr inbounds nuw %struct.t_dlist, ptr %41, i32 0, i32 4
  %43 = getelementptr inbounds nuw %struct.t_dihatms, ptr %42, i32 0, i32 4
  %44 = load i32, ptr %43, align 4, !tbaa !138
  %45 = icmp ne i32 %44, -1
  br i1 %45, label %46, label %65

46:                                               ; preds = %40
  %47 = load ptr, ptr %4, align 8, !tbaa !92
  %48 = getelementptr inbounds nuw %struct.t_dlist, ptr %47, i32 0, i32 4
  %49 = getelementptr inbounds nuw %struct.t_dihatms, ptr %48, i32 0, i32 7
  %50 = getelementptr inbounds [9 x i32], ptr %49, i64 0, i64 1
  %51 = load i32, ptr %50, align 4, !tbaa !13
  %52 = icmp ne i32 %51, -1
  br i1 %52, label %53, label %65

53:                                               ; preds = %46
  %54 = load ptr, ptr %4, align 8, !tbaa !92
  %55 = getelementptr inbounds nuw %struct.t_dlist, ptr %54, i32 0, i32 4
  %56 = getelementptr inbounds nuw %struct.t_dihatms, ptr %55, i32 0, i32 5
  %57 = load i32, ptr %56, align 4, !tbaa !139
  %58 = icmp ne i32 %57, -1
  br i1 %58, label %59, label %65

59:                                               ; preds = %53
  %60 = load ptr, ptr %4, align 8, !tbaa !92
  %61 = getelementptr inbounds nuw %struct.t_dlist, ptr %60, i32 0, i32 4
  %62 = getelementptr inbounds nuw %struct.t_dihatms, ptr %61, i32 0, i32 6
  %63 = load i32, ptr %62, align 4, !tbaa !140
  %64 = icmp ne i32 %63, -1
  br label %65

65:                                               ; preds = %59, %53, %46, %40
  %66 = phi i1 [ false, %53 ], [ false, %46 ], [ false, %40 ], [ %64, %59 ]
  %67 = zext i1 %66 to i8
  store i8 %67, ptr %5, align 1, !tbaa !11
  br label %158

68:                                               ; preds = %2
  %69 = load ptr, ptr %4, align 8, !tbaa !92
  %70 = getelementptr inbounds nuw %struct.t_dlist, ptr %69, i32 0, i32 4
  %71 = getelementptr inbounds nuw %struct.t_dihatms, ptr %70, i32 0, i32 0
  %72 = load i32, ptr %71, align 4, !tbaa !141
  %73 = icmp ne i32 %72, -1
  br i1 %73, label %74, label %93

74:                                               ; preds = %68
  %75 = load ptr, ptr %4, align 8, !tbaa !92
  %76 = getelementptr inbounds nuw %struct.t_dlist, ptr %75, i32 0, i32 4
  %77 = getelementptr inbounds nuw %struct.t_dihatms, ptr %76, i32 0, i32 1
  %78 = load i32, ptr %77, align 4, !tbaa !142
  %79 = icmp ne i32 %78, -1
  br i1 %79, label %80, label %93

80:                                               ; preds = %74
  %81 = load ptr, ptr %4, align 8, !tbaa !92
  %82 = getelementptr inbounds nuw %struct.t_dlist, ptr %81, i32 0, i32 4
  %83 = getelementptr inbounds nuw %struct.t_dihatms, ptr %82, i32 0, i32 4
  %84 = load i32, ptr %83, align 4, !tbaa !138
  %85 = icmp ne i32 %84, -1
  br i1 %85, label %86, label %93

86:                                               ; preds = %80
  %87 = load ptr, ptr %4, align 8, !tbaa !92
  %88 = getelementptr inbounds nuw %struct.t_dlist, ptr %87, i32 0, i32 4
  %89 = getelementptr inbounds nuw %struct.t_dihatms, ptr %88, i32 0, i32 7
  %90 = getelementptr inbounds [9 x i32], ptr %89, i64 0, i64 1
  %91 = load i32, ptr %90, align 4, !tbaa !13
  %92 = icmp ne i32 %91, -1
  br label %93

93:                                               ; preds = %86, %80, %74, %68
  %94 = phi i1 [ false, %80 ], [ false, %74 ], [ false, %68 ], [ %92, %86 ]
  %95 = zext i1 %94 to i8
  store i8 %95, ptr %5, align 1, !tbaa !11
  br label %158

96:                                               ; preds = %2, %2, %2, %2, %2, %2
  %97 = load i32, ptr %3, align 4, !tbaa !13
  %98 = sub nsw i32 %97, 3
  store i32 %98, ptr %6, align 4, !tbaa !13
  %99 = load ptr, ptr %4, align 8, !tbaa !92
  %100 = getelementptr inbounds nuw %struct.t_dlist, ptr %99, i32 0, i32 4
  %101 = getelementptr inbounds nuw %struct.t_dihatms, ptr %100, i32 0, i32 7
  %102 = load i32, ptr %6, align 4, !tbaa !13
  %103 = sext i32 %102 to i64
  %104 = getelementptr inbounds [9 x i32], ptr %101, i64 0, i64 %103
  %105 = load i32, ptr %104, align 4, !tbaa !13
  %106 = icmp ne i32 %105, -1
  br i1 %106, label %107, label %137

107:                                              ; preds = %96
  %108 = load ptr, ptr %4, align 8, !tbaa !92
  %109 = getelementptr inbounds nuw %struct.t_dlist, ptr %108, i32 0, i32 4
  %110 = getelementptr inbounds nuw %struct.t_dihatms, ptr %109, i32 0, i32 7
  %111 = load i32, ptr %6, align 4, !tbaa !13
  %112 = add nsw i32 %111, 1
  %113 = sext i32 %112 to i64
  %114 = getelementptr inbounds [9 x i32], ptr %110, i64 0, i64 %113
  %115 = load i32, ptr %114, align 4, !tbaa !13
  %116 = icmp ne i32 %115, -1
  br i1 %116, label %117, label %137

117:                                              ; preds = %107
  %118 = load ptr, ptr %4, align 8, !tbaa !92
  %119 = getelementptr inbounds nuw %struct.t_dlist, ptr %118, i32 0, i32 4
  %120 = getelementptr inbounds nuw %struct.t_dihatms, ptr %119, i32 0, i32 7
  %121 = load i32, ptr %6, align 4, !tbaa !13
  %122 = add nsw i32 %121, 2
  %123 = sext i32 %122 to i64
  %124 = getelementptr inbounds [9 x i32], ptr %120, i64 0, i64 %123
  %125 = load i32, ptr %124, align 4, !tbaa !13
  %126 = icmp ne i32 %125, -1
  br i1 %126, label %127, label %137

127:                                              ; preds = %117
  %128 = load ptr, ptr %4, align 8, !tbaa !92
  %129 = getelementptr inbounds nuw %struct.t_dlist, ptr %128, i32 0, i32 4
  %130 = getelementptr inbounds nuw %struct.t_dihatms, ptr %129, i32 0, i32 7
  %131 = load i32, ptr %6, align 4, !tbaa !13
  %132 = add nsw i32 %131, 3
  %133 = sext i32 %132 to i64
  %134 = getelementptr inbounds [9 x i32], ptr %130, i64 0, i64 %133
  %135 = load i32, ptr %134, align 4, !tbaa !13
  %136 = icmp ne i32 %135, -1
  br label %137

137:                                              ; preds = %127, %117, %107, %96
  %138 = phi i1 [ false, %117 ], [ false, %107 ], [ false, %96 ], [ %136, %127 ]
  %139 = zext i1 %138 to i8
  store i8 %139, ptr %5, align 1, !tbaa !11
  br label %158

140:                                              ; preds = %2
  %141 = load ptr, ptr @stdout, align 8, !tbaa !4
  %142 = load ptr, ptr %4, align 8, !tbaa !92
  %143 = call { ptr, ptr } @_ZN3gmx22constArrayRefFromArrayI7t_dlistEENS_8ArrayRefIKT_EEPS4_m(ptr noundef %142, i64 noundef 1)
  %144 = getelementptr inbounds nuw { ptr, ptr }, ptr %7, i32 0, i32 0
  %145 = extractvalue { ptr, ptr } %143, 0
  store ptr %145, ptr %144, align 8
  %146 = getelementptr inbounds nuw { ptr, ptr }, ptr %7, i32 0, i32 1
  %147 = extractvalue { ptr, ptr } %143, 1
  store ptr %147, ptr %146, align 8
  %148 = getelementptr inbounds nuw { ptr, ptr }, ptr %7, i32 0, i32 0
  %149 = load ptr, ptr %148, align 8
  %150 = getelementptr inbounds nuw { ptr, ptr }, ptr %7, i32 0, i32 1
  %151 = load ptr, ptr %150, align 8
  call void @_Z8pr_dlistP8_IO_FILEN3gmx8ArrayRefIK7t_dlistEEfibbbbi(ptr noundef %141, ptr %149, ptr %151, float noundef 1.000000e+00, i32 noundef 0, i1 noundef zeroext true, i1 noundef zeroext true, i1 noundef zeroext true, i1 noundef zeroext true, i32 noundef 6)
  call void @llvm.lifetime.start.p0(i64 40, ptr %8) #16
  call void @_ZNSt10filesystem7__cxx114pathC2IA122_cS1_EERKT_NS1_6formatE(ptr noundef nonnull align 8 dereferenceable(40) %8, ptr noundef nonnull align 1 dereferenceable(122) @.str, i8 noundef zeroext 2)
  %152 = load i32, ptr %3, align 4, !tbaa !13
  invoke void (i32, ptr, i32, ptr, ...) @_Z9gmx_fataliRKNSt10filesystem7__cxx114pathEiPKcz(i32 noundef 0, ptr noundef nonnull align 8 dereferenceable(40) %8, i32 noundef 380, ptr noundef @.str.55, i32 noundef %152, ptr noundef @.str, i32 noundef 380) #17
          to label %153 unwind label %154

153:                                              ; preds = %140
  unreachable

154:                                              ; preds = %140
  %155 = landingpad { ptr, i32 }
          cleanup
  %156 = extractvalue { ptr, i32 } %155, 0
  store ptr %156, ptr %9, align 8
  %157 = extractvalue { ptr, i32 } %155, 1
  store i32 %157, ptr %10, align 4
  call void @_ZNSt10filesystem7__cxx114pathD2Ev(ptr noundef nonnull align 8 dereferenceable(40) %8) #16
  call void @llvm.lifetime.end.p0(i64 40, ptr %8) #16
  call void @llvm.lifetime.end.p0(i64 4, ptr %6) #16
  call void @llvm.lifetime.end.p0(i64 1, ptr %5) #16
  br label %161

158:                                              ; preds = %137, %93, %65, %37
  %159 = load i8, ptr %5, align 1, !tbaa !11, !range !51, !noundef !52
  %160 = trunc i8 %159 to i1
  call void @llvm.lifetime.end.p0(i64 4, ptr %6) #16
  call void @llvm.lifetime.end.p0(i64 1, ptr %5) #16
  ret i1 %160

161:                                              ; preds = %154
  %162 = load ptr, ptr %9, align 8
  %163 = load i32, ptr %10, align 4
  %164 = insertvalue { ptr, i32 } poison, ptr %162, 0
  %165 = insertvalue { ptr, i32 } %164, i32 %163, 1
  resume { ptr, i32 } %165
}