; Function Attrs: mustprogress uwtable
define noundef zeroext i1 @_Z12has_dihedraliRK7t_dlist(i32 noundef %0, ptr noundef nonnull align 8 dereferenceable(400) %1) local_unnamed_addr #0 personality ptr @__gxx_personality_v0 {
  %3 = alloca %"class.std::filesystem::__cxx11::path", align 8
  switch i32 %0, label %58 [
    i32 0, label %4
    i32 1, label %15
    i32 2, label %26
    i32 3, label %37
    i32 4, label %37
    i32 5, label %37
    i32 6, label %37
    i32 7, label %37
    i32 8, label %37
  ]

4:                                                ; preds = %2
  %5 = getelementptr inbounds nuw i8, ptr %1, i64 96
  %6 = load i32, ptr %5, align 8, !tbaa !69
  %.not34 = icmp eq i32 %6, -1
  %7 = getelementptr inbounds nuw i8, ptr %1, i64 100
  %8 = load i32, ptr %7, align 4
  %.not35 = icmp eq i32 %8, -1
  %or.cond = select i1 %.not34, i1 true, i1 %.not35
  %9 = getelementptr inbounds nuw i8, ptr %1, i64 116
  %10 = load i32, ptr %9, align 4
  %.not36 = icmp eq i32 %10, -1
  %or.cond39 = select i1 %or.cond, i1 true, i1 %.not36
  br i1 %or.cond39, label %64, label %11

11:                                               ; preds = %4
  %12 = getelementptr inbounds nuw i8, ptr %1, i64 104
  %13 = load i32, ptr %12, align 8, !tbaa !70
  %14 = icmp ne i32 %13, -1
  br label %64

15:                                               ; preds = %2
  %16 = getelementptr inbounds nuw i8, ptr %1, i64 100
  %17 = load i32, ptr %16, align 4, !tbaa !71
  %.not31 = icmp eq i32 %17, -1
  %18 = getelementptr inbounds nuw i8, ptr %1, i64 116
  %19 = load i32, ptr %18, align 4
  %.not32 = icmp eq i32 %19, -1
  %or.cond41 = select i1 %.not31, i1 true, i1 %.not32
  %20 = getelementptr inbounds nuw i8, ptr %1, i64 104
  %21 = load i32, ptr %20, align 8
  %.not33 = icmp eq i32 %21, -1
  %or.cond43 = select i1 %or.cond41, i1 true, i1 %.not33
  br i1 %or.cond43, label %64, label %22

22:                                               ; preds = %15
  %23 = getelementptr inbounds nuw i8, ptr %1, i64 108
  %24 = load i32, ptr %23, align 4, !tbaa !72
  %25 = icmp ne i32 %24, -1
  br label %64

26:                                               ; preds = %2
  %27 = getelementptr inbounds nuw i8, ptr %1, i64 84
  %28 = load i32, ptr %27, align 4, !tbaa !73
  %.not28 = icmp eq i32 %28, -1
  %29 = getelementptr inbounds nuw i8, ptr %1, i64 88
  %30 = load i32, ptr %29, align 8
  %.not29 = icmp eq i32 %30, -1
  %or.cond45 = select i1 %.not28, i1 true, i1 %.not29
  %31 = getelementptr inbounds nuw i8, ptr %1, i64 100
  %32 = load i32, ptr %31, align 4
  %.not30 = icmp eq i32 %32, -1
  %or.cond47 = select i1 %or.cond45, i1 true, i1 %.not30
  br i1 %or.cond47, label %64, label %33

33:                                               ; preds = %26
  %34 = getelementptr inbounds nuw i8, ptr %1, i64 116
  %35 = load i32, ptr %34, align 4, !tbaa !29
  %36 = icmp ne i32 %35, -1
  br label %64

37:                                               ; preds = %2, %2, %2, %2, %2, %2
  %38 = add nsw i32 %0, -3
  %39 = getelementptr inbounds nuw i8, ptr %1, i64 112
  %40 = zext nneg i32 %38 to i64
  %41 = getelementptr inbounds nuw [9 x i32], ptr %39, i64 0, i64 %40
  %42 = load i32, ptr %41, align 4, !tbaa !29
  %.not = icmp eq i32 %42, -1
  br i1 %.not, label %64, label %43

43:                                               ; preds = %37
  %44 = add nsw i32 %0, -2
  %45 = zext nneg i32 %44 to i64
  %46 = getelementptr inbounds nuw [9 x i32], ptr %39, i64 0, i64 %45
  %47 = load i32, ptr %46, align 4, !tbaa !29
  %.not26 = icmp eq i32 %47, -1
  br i1 %.not26, label %64, label %48

48:                                               ; preds = %43
  %49 = add nsw i32 %0, -1
  %50 = zext nneg i32 %49 to i64
  %51 = getelementptr inbounds nuw [9 x i32], ptr %39, i64 0, i64 %50
  %52 = load i32, ptr %51, align 4, !tbaa !29
  %.not27 = icmp eq i32 %52, -1
  br i1 %.not27, label %64, label %53

53:                                               ; preds = %48
  %54 = zext nneg i32 %0 to i64
  %55 = getelementptr inbounds nuw [9 x i32], ptr %39, i64 0, i64 %54
  %56 = load i32, ptr %55, align 4, !tbaa !29
  %57 = icmp ne i32 %56, -1
  br label %64

58:                                               ; preds = %2
  %59 = load ptr, ptr @stdout, align 8, !tbaa !27
  %60 = getelementptr inbounds nuw i8, ptr %1, i64 400
  tail call void @_Z8pr_dlistP8_IO_FILEN3gmx8ArrayRefIK7t_dlistEEfibbbbi(ptr noundef %59, ptr nonnull %1, ptr nonnull %60, float noundef 1.000000e+00, i32 noundef 0, i1 noundef zeroext true, i1 noundef zeroext true, i1 noundef zeroext true, i1 noundef zeroext true, i32 noundef 6)
  call void @llvm.lifetime.start.p0(i64 40, ptr nonnull %3) #18
  call void @_ZNSt10filesystem7__cxx114pathC2IA122_cS1_EERKT_NS1_6formatE(ptr noundef nonnull align 8 dereferenceable(40) %3, ptr noundef nonnull align 1 dereferenceable(122) @.str, i8 noundef zeroext 2)
  invoke void (i32, ptr, i32, ptr, ...) @_Z9gmx_fataliRKNSt10filesystem7__cxx114pathEiPKcz(i32 noundef 0, ptr noundef nonnull align 8 dereferenceable(40) %3, i32 noundef 380, ptr noundef nonnull @.str.55, i32 noundef %0, ptr noundef nonnull @.str, i32 noundef 380) #19
          to label %61 unwind label %62

61:                                               ; preds = %58
  unreachable

62:                                               ; preds = %58
  %63 = landingpad { ptr, i32 }
          cleanup
  call void @_ZNSt10filesystem7__cxx114pathD2Ev(ptr noundef nonnull align 8 dereferenceable(40) %3) #18
  call void @llvm.lifetime.end.p0(i64 40, ptr nonnull %3) #18
  resume { ptr, i32 } %63

64:                                               ; preds = %37, %43, %48, %53, %26, %33, %15, %22, %4, %11
  %.0 = phi i1 [ false, %4 ], [ %14, %11 ], [ false, %15 ], [ %25, %22 ], [ false, %26 ], [ %36, %33 ], [ false, %48 ], [ false, %43 ], [ false, %37 ], [ %57, %53 ]
  ret i1 %.0
}